target datalayout = "e-m:e-p270:32:32-p271:32:32-p272:64:64-i64:64-i128:128-f80:128-n8:16:32:64-S128"
target triple = "x86_64-pc-linux-gnu"

%"class.pxrInternal_v0_24__pxrReserved__::UsdImagingExtentResolvingSceneIndex_Impl::_TransformedEntries" = type { ptr, %"class.pxrInternal_v0_24__pxrReserved__::TfSmallVector.47" }
%"class.pxrInternal_v0_24__pxrReserved__::TfSmallVector.47" = type { %"union.pxrInternal_v0_24__pxrReserved__::TfSmallVectorBase::_DataUnion.48", i32, i32 }
%"union.pxrInternal_v0_24__pxrReserved__::TfSmallVectorBase::_DataUnion.48" = type { ptr, [7416 x i8] }

; Function Attrs: mustprogress nounwind uwtable
define linkonce_odr noundef i64 @_ZNK32pxrInternal_v0_24__pxrReserved__13TfSmallVectorINS_20HdSceneIndexObserver16DirtiedPrimEntryELj16EE4sizeEv(ptr noundef nonnull align 8 dereferenceable(7432) %0) #0 comdat align 2 {
  %2 = alloca ptr, align 8
  store ptr %0, ptr %2, align 8
  %3 = load ptr, ptr %2, align 8
  %4 = getelementptr inbounds nuw %"class.pxrInternal_v0_24__pxrReserved__::TfSmallVector.47", ptr %3, i32 0, i32 1
  %5 = load i32, ptr %4, align 8
  %6 = zext i32 %5 to i64
  ret i64 %6
}

; Function Attrs: mustprogress nounwind uwtable
define linkonce_odr noundef zeroext i1 @_ZNK32pxrInternal_v0_24__pxrReserved__13TfSmallVectorINS_20HdSceneIndexObserver16DirtiedPrimEntryELj16EE5emptyEv(ptr noundef nonnull align 8 dereferenceable(7432) %0) #0 comdat align 2 {
  %2 = alloca ptr, align 8
  store ptr %0, ptr %2, align 8
  %3 = load ptr, ptr %2, align 8
  %4 = call noundef i64 @_ZNK32pxrInternal_v0_24__pxrReserved__13TfSmallVectorINS_20HdSceneIndexObserver16DirtiedPrimEntryELj16EE4sizeEv(ptr noundef nonnull align 8 dereferenceable(7432) %3)
  %5 = icmp eq i64 %4, 0
  ret i1 %5
}

; Function Attrs: mustprogress uwtable
define linkonce_odr noundef nonnull align 8 dereferenceable(7432) ptr @_ZNK32pxrInternal_v0_24__pxrReserved__40UsdImagingExtentResolvingSceneIndex_Impl19_TransformedEntriesIXadL_ZNS0_33_ContainsExtentsHintWithoutExtentERKNS_20HdSceneIndexObserver16DirtiedPrimEntryEEEXadL_ZNS0_12_ExtentAddedES5_EEE10GetEntriesEv(ptr noundef nonnull align 8 dereferenceable(7440) %0) #1 comdat align 2 {
  %2 = alloca ptr, align 8
  %3 = alloca ptr, align 8
  store ptr %0, ptr %3, align 8
  %4 = load ptr, ptr %3, align 8
  %5 = getelementptr inbounds nuw %"class.pxrInternal_v0_24__pxrReserved__::UsdImagingExtentResolvingSceneIndex_Impl::_TransformedEntries", ptr %4, i32 0, i32 1
  %6 = call noundef zeroext i1 @_ZNK32pxrInternal_v0_24__pxrReserved__13TfSmallVectorINS_20HdSceneIndexObserver16DirtiedPrimEntryELj16EE5emptyEv(ptr noundef nonnull align 8 dereferenceable(7432) %5)
  br i1 %6, label %7, label %10

7:                                                ; preds = %1
  %8 = getelementptr inbounds nuw %"class.pxrInternal_v0_24__pxrReserved__::UsdImagingExtentResolvingSceneIndex_Impl::_TransformedEntries", ptr %4, i32 0, i32 0
  %9 = load ptr, ptr %8, align 8
  store ptr %9, ptr %2, align 8
  br label %12

10:                                               ; preds = %1
  %11 = getelementptr inbounds nuw %"class.pxrInternal_v0_24__pxrReserved__::UsdImagingExtentResolvingSceneIndex_Impl::_TransformedEntries", ptr %4, i32 0, i32 1
  store ptr %11, ptr %2, align 8
  br label %12

12:                                               ; preds = %10, %7
  %13 = load ptr, ptr %2, align 8
  ret ptr %13
}

; Function Attrs: mustprogress uwtable
define void @_ZN32pxrInternal_v0_24__pxrReserved__35UsdImagingExtentResolvingSceneIndex13_PrimsDirtiedERKNS_16HdSceneIndexBaseERKNS_13TfSmallVectorINS_20HdSceneIndexObserver16DirtiedPrimEntryELj16EEE(ptr noundef nonnull align 8 dereferenceable(168) %0, ptr noundef nonnull align 8 dereferenceable(120) %1, ptr noundef nonnull align 8 dereferenceable(7432) %2) unnamed_addr #1 align 2 personality ptr @__gxx_personality_v0 {
  %4 = alloca ptr, align 8
  %5 = alloca ptr, align 8
  %6 = alloca ptr, align 8
  %7 = alloca %"class.pxrInternal_v0_24__pxrReserved__::UsdImagingExtentResolvingSceneIndex_Impl::_TransformedEntries", align 8
  %8 = alloca ptr, align 8
  %9 = alloca i32, align 4
  store ptr %0, ptr %4, align 8
  store ptr %1, ptr %5, align 8
  store ptr %2, ptr %6, align 8
  %10 = load ptr, ptr %4, align 8
  %11 = call noundef zeroext i1 @_ZNK32pxrInternal_v0_24__pxrReserved__16HdSceneIndexBase11_IsObservedEv(ptr noundef nonnull align 8 dereferenceable(120) %10)
  br i1 %11, label %13, label %12

12:                                               ; preds = %3
  br label %18

13:                                               ; preds = %3
  %14 = load ptr, ptr %6, align 8
  call void @_ZN32pxrInternal_v0_24__pxrReserved__40UsdImagingExtentResolvingSceneIndex_Impl19_TransformedEntriesIXadL_ZNS0_33_ContainsExtentsHintWithoutExtentERKNS_20HdSceneIndexObserver16DirtiedPrimEntryEEEXadL_ZNS0_12_ExtentAddedES5_EEEC2ERKNS_13TfSmallVectorIS3_Lj16EEE(ptr noundef nonnull align 8 dereferenceable(7440) %7, ptr noundef nonnull align 8 dereferenceable(7432) %14)
  %15 = invoke noundef nonnull align 8 dereferenceable(7432) ptr @_ZNK32pxrInternal_v0_24__pxrReserved__40UsdImagingExtentResolvingSceneIndex_Impl19_TransformedEntriesIXadL_ZNS0_33_ContainsExtentsHintWithoutExtentERKNS_20HdSceneIndexObserver16DirtiedPrimEntryEEEXadL_ZNS0_12_ExtentAddedES5_EEE10GetEntriesEv(ptr noundef nonnull align 8 dereferenceable(7440) %7)
          to label %16 unwind label %19

16:                                               ; preds = %13
  invoke void @_ZN32pxrInternal_v0_24__pxrReserved__16HdSceneIndexBase17_SendPrimsDirtiedERKNS_13TfSmallVectorINS_20HdSceneIndexObserver16DirtiedPrimEntryELj16EEE(ptr noundef nonnull align 8 dereferenceable(120) %10, ptr noundef nonnull align 8 dereferenceable(7432) %15)
          to label %17 unwind label %19

17:                                               ; preds = %16
  call void @_ZN32pxrInternal_v0_24__pxrReserved__40UsdImagingExtentResolvingSceneIndex_Impl19_TransformedEntriesIXadL_ZNS0_33_ContainsExtentsHintWithoutExtentERKNS_20HdSceneIndexObserver16DirtiedPrimEntryEEEXadL_ZNS0_12_ExtentAddedES5_EEED2Ev(ptr noundef nonnull align 8 dereferenceable(7440) %7) #3
  br label %18

18:                                               ; preds = %17, %12
  ret void

19:                                               ; preds = %16, %13
  %20 = landingpad { ptr, i32 }
          cleanup
  %21 = extractvalue { ptr, i32 } %20, 0
  store ptr %21, ptr %8, align 8
  %22 = extractvalue { ptr, i32 } %20, 1
  store i32 %22, ptr %9, align 4
  call void @_ZN32pxrInternal_v0_24__pxrReserved__40UsdImagingExtentResolvingSceneIndex_Impl19_TransformedEntriesIXadL_ZNS0_33_ContainsExtentsHintWithoutExtentERKNS_20HdSceneIndexObserver16DirtiedPrimEntryEEEXadL_ZNS0_12_ExtentAddedES5_EEED2Ev(ptr noundef nonnull align 8 dereferenceable(7440) %7) #3
  br label %23

23:                                               ; preds = %19
  %24 = load ptr, ptr %8, align 8
  %25 = load i32, ptr %9, align 4
  %26 = insertvalue { ptr, i32 } poison, ptr %24, 0
  %27 = insertvalue { ptr, i32 } %26, i32 %25, 1
  resume { ptr, i32 } %27
}