; Function Attrs: mustprogress uwtable
define void @_ZN32pxrInternal_v0_24__pxrReserved__35UsdImagingExtentResolvingSceneIndex13_PrimsDirtiedERKNS_16HdSceneIndexBaseERKNS_13TfSmallVectorINS_20HdSceneIndexObserver16DirtiedPrimEntryELj16EEE(ptr noundef nonnull align 8 dereferenceable(168) %0, ptr nocapture nonnull readnone align 8 %1, ptr noundef nonnull align 8 dereferenceable(7432) %2) unnamed_addr #1 align 2 personality ptr @__gxx_personality_v0 {
  %4 = alloca %"class.pxrInternal_v0_24__pxrReserved__::UsdImagingExtentResolvingSceneIndex_Impl::_TransformedEntries", align 8
  %5 = tail call noundef zeroext i1 @_ZNK32pxrInternal_v0_24__pxrReserved__16HdSceneIndexBase11_IsObservedEv(ptr noundef nonnull align 8 dereferenceable(120) %0)
  br i1 %5, label %6, label %_ZN32pxrInternal_v0_24__pxrReserved__40UsdImagingExtentResolvingSceneIndex_Impl19_TransformedEntriesIXadL_ZNS0_33_ContainsExtentsHintWithoutExtentERKNS_20HdSceneIndexObserver16DirtiedPrimEntryEEEXadL_ZNS0_12_ExtentAddedES5_EEED2Ev.exit

6:                                                ; preds = %3
  call void @_ZN32pxrInternal_v0_24__pxrReserved__40UsdImagingExtentResolvingSceneIndex_Impl19_TransformedEntriesIXadL_ZNS0_33_ContainsExtentsHintWithoutExtentERKNS_20HdSceneIndexObserver16DirtiedPrimEntryEEEXadL_ZNS0_12_ExtentAddedES5_EEEC2ERKNS_13TfSmallVectorIS3_Lj16EEE(ptr noundef nonnull align 8 dereferenceable(7440) %4, ptr noundef nonnull align 8 dereferenceable(7432) %2)
  %7 = getelementptr inbounds nuw i8, ptr %4, i64 8
  %8 = getelementptr inbounds i8, ptr %4, i64 7432
  %9 = load i32, ptr %8, align 8
  %10 = icmp eq i32 %9, 0
  %11 = load ptr, ptr %4, align 8
  %.0.i = select i1 %10, ptr %11, ptr %7
  invoke void @_ZN32pxrInternal_v0_24__pxrReserved__16HdSceneIndexBase17_SendPrimsDirtiedERKNS_13TfSmallVectorINS_20HdSceneIndexObserver16DirtiedPrimEntryELj16EEE(ptr noundef nonnull align 8 dereferenceable(120) %0, ptr noundef nonnull align 8 dereferenceable(7432) %.0.i)
          to label %12 unwind label %25

12:                                               ; preds = %6
  %13 = getelementptr inbounds i8, ptr %4, i64 7436
  %14 = load i32, ptr %13, align 4
  %15 = icmp ult i32 %14, 17
  %16 = load ptr, ptr %7, align 8
  %spec.select.i.i.i.i.i = select i1 %15, ptr %7, ptr %16
  %17 = load i32, ptr %8, align 8
  %18 = zext i32 %17 to i64
  %19 = getelementptr inbounds %"struct.pxrInternal_v0_24__pxrReserved__::HdSceneIndexObserver::DirtiedPrimEntry", ptr %spec.select.i.i.i.i.i, i64 %18
  %.not7.i.i.i = icmp eq i32 %17, 0
  br i1 %.not7.i.i.i, label %_ZN32pxrInternal_v0_24__pxrReserved__13TfSmallVectorINS_20HdSceneIndexObserver16DirtiedPrimEntryELj16EE9_DestructEv.exit.i.i, label %.lr.ph.i.i.i

.lr.ph.i.i.i:                                     ; preds = %12, %.lr.ph.i.i.i
  %.08.i.i.i = phi ptr [ %20, %.lr.ph.i.i.i ], [ %spec.select.i.i.i.i.i, %12 ]
  call void @_ZN32pxrInternal_v0_24__pxrReserved__20HdSceneIndexObserver16DirtiedPrimEntryD2Ev(ptr noundef nonnull align 8 dereferenceable(464) %.08.i.i.i) #23
  %20 = getelementptr inbounds i8, ptr %.08.i.i.i, i64 464
  %.not.i.i.i = icmp eq ptr %20, %19
  br i1 %.not.i.i.i, label %_ZN32pxrInternal_v0_24__pxrReserved__13TfSmallVectorINS_20HdSceneIndexObserver16DirtiedPrimEntryELj16EE9_DestructEv.exit.loopexit.i.i, label %.lr.ph.i.i.i, !llvm.loop !23

_ZN32pxrInternal_v0_24__pxrReserved__13TfSmallVectorINS_20HdSceneIndexObserver16DirtiedPrimEntryELj16EE9_DestructEv.exit.loopexit.i.i: ; preds = %.lr.ph.i.i.i
  %.pre.i.i = load i32, ptr %13, align 4
  br label %_ZN32pxrInternal_v0_24__pxrReserved__13TfSmallVectorINS_20HdSceneIndexObserver16DirtiedPrimEntryELj16EE9_DestructEv.exit.i.i

_ZN32pxrInternal_v0_24__pxrReserved__13TfSmallVectorINS_20HdSceneIndexObserver16DirtiedPrimEntryELj16EE9_DestructEv.exit.i.i: ; preds = %_ZN32pxrInternal_v0_24__pxrReserved__13TfSmallVectorINS_20HdSceneIndexObserver16DirtiedPrimEntryELj16EE9_DestructEv.exit.loopexit.i.i, %12
  %21 = phi i32 [ %.pre.i.i, %_ZN32pxrInternal_v0_24__pxrReserved__13TfSmallVectorINS_20HdSceneIndexObserver16DirtiedPrimEntryELj16EE9_DestructEv.exit.loopexit.i.i ], [ %14, %12 ]
  %22 = icmp ult i32 %21, 17
  br i1 %22, label %_ZN32pxrInternal_v0_24__pxrReserved__40UsdImagingExtentResolvingSceneIndex_Impl19_TransformedEntriesIXadL_ZNS0_33_ContainsExtentsHintWithoutExtentERKNS_20HdSceneIndexObserver16DirtiedPrimEntryEEEXadL_ZNS0_12_ExtentAddedES5_EEED2Ev.exit, label %23

23:                                               ; preds = %_ZN32pxrInternal_v0_24__pxrReserved__13TfSmallVectorINS_20HdSceneIndexObserver16DirtiedPrimEntryELj16EE9_DestructEv.exit.i.i
  %24 = load ptr, ptr %7, align 8
  call void @free(ptr noundef %24) #23
  br label %_ZN32pxrInternal_v0_24__pxrReserved__40UsdImagingExtentResolvingSceneIndex_Impl19_TransformedEntriesIXadL_ZNS0_33_ContainsExtentsHintWithoutExtentERKNS_20HdSceneIndexObserver16DirtiedPrimEntryEEEXadL_ZNS0_12_ExtentAddedES5_EEED2Ev.exit

_ZN32pxrInternal_v0_24__pxrReserved__40UsdImagingExtentResolvingSceneIndex_Impl19_TransformedEntriesIXadL_ZNS0_33_ContainsExtentsHintWithoutExtentERKNS_20HdSceneIndexObserver16DirtiedPrimEntryEEEXadL_ZNS0_12_ExtentAddedES5_EEED2Ev.exit: ; preds = %23, %_ZN32pxrInternal_v0_24__pxrReserved__13TfSmallVectorINS_20HdSceneIndexObserver16DirtiedPrimEntryELj16EE9_DestructEv.exit.i.i, %3
  ret void

25:                                               ; preds = %6
  %26 = landingpad { ptr, i32 }
          cleanup
  call void @_ZN32pxrInternal_v0_24__pxrReserved__40UsdImagingExtentResolvingSceneIndex_Impl19_TransformedEntriesIXadL_ZNS0_33_ContainsExtentsHintWithoutExtentERKNS_20HdSceneIndexObserver16DirtiedPrimEntryEEEXadL_ZNS0_12_ExtentAddedES5_EEED2Ev(ptr noundef nonnull align 8 dereferenceable(7440) %4) #23
  resume { ptr, i32 } %26
}